target datalayout = "e-m:e-p270:32:32-p271:32:32-p272:64:64-i64:64-i128:128-f80:128-n8:16:32:64-S128"
target triple = "x86_64-pc-linux-gnu"

%struct.StringInfoData = type { ptr, i32, i32, i32 }
%struct.Node = type { i32 }
%struct.Expr = type { i32 }
%struct.JsonConstructorExpr = type { %struct.Expr, i32, ptr, ptr, ptr, ptr, i8, i8, i32 }

@.str.2 = private unnamed_addr constant [12 x i8] c"ruleutils.c\00", align 1
@.str.281 = private unnamed_addr constant [53 x i8] c"invalid JsonConstructorExpr underlying node type: %d\00", align 1
@__func__.get_json_agg_constructor = private unnamed_addr constant [25 x i8] c"get_json_agg_constructor\00", align 1

; Function Attrs: nounwind uwtable
define internal void @get_json_agg_constructor(ptr noundef %0, ptr noundef %1, ptr noundef %2, i1 noundef zeroext %3) #0 {
  %5 = alloca ptr, align 8
  %6 = alloca ptr, align 8
  %7 = alloca ptr, align 8
  %8 = alloca i8, align 1
  %9 = alloca %struct.StringInfoData, align 8
  store ptr %0, ptr %5, align 8
  store ptr %1, ptr %6, align 8
  store ptr %2, ptr %7, align 8
  %10 = zext i1 %3 to i8
  store i8 %10, ptr %8, align 1
  call void @llvm.lifetime.start.p0(i64 24, ptr %9) #10
  call void @initStringInfo(ptr noundef %9)
  %11 = load ptr, ptr %5, align 8
  call void @get_json_constructor_options(ptr noundef %11, ptr noundef %9)
  %12 = load ptr, ptr %5, align 8
  %13 = getelementptr inbounds nuw %struct.JsonConstructorExpr, ptr %12, i32 0, i32 3
  %14 = load ptr, ptr %13, align 8
  %15 = getelementptr inbounds nuw %struct.Node, ptr %14, i32 0, i32 0
  %16 = load i32, ptr %15, align 4
  %17 = icmp eq i32 %16, 9
  br i1 %17, label %18, label %31

18:                                               ; preds = %4
  %19 = load ptr, ptr %5, align 8
  %20 = getelementptr inbounds nuw %struct.JsonConstructorExpr, ptr %19, i32 0, i32 3
  %21 = load ptr, ptr %20, align 8
  %22 = load ptr, ptr %6, align 8
  %23 = load ptr, ptr %5, align 8
  %24 = getelementptr inbounds nuw %struct.JsonConstructorExpr, ptr %23, i32 0, i32 3
  %25 = load ptr, ptr %24, align 8
  %26 = load ptr, ptr %7, align 8
  %27 = getelementptr inbounds nuw %struct.StringInfoData, ptr %9, i32 0, i32 0
  %28 = load ptr, ptr %27, align 8
  %29 = load i8, ptr %8, align 1, !range !4, !noundef !5
  %30 = trunc i8 %29 to i1
  call void @get_agg_expr_helper(ptr noundef %21, ptr noundef %22, ptr noundef %25, ptr noundef %26, ptr noundef %28, i1 noundef zeroext %30)
  br label %65

31:                                               ; preds = %4
  %32 = load ptr, ptr %5, align 8
  %33 = getelementptr inbounds nuw %struct.JsonConstructorExpr, ptr %32, i32 0, i32 3
  %34 = load ptr, ptr %33, align 8
  %35 = getelementptr inbounds nuw %struct.Node, ptr %34, i32 0, i32 0
  %36 = load i32, ptr %35, align 4
  %37 = icmp eq i32 %36, 11
  br i1 %37, label %38, label %48

38:                                               ; preds = %31
  %39 = load ptr, ptr %5, align 8
  %40 = getelementptr inbounds nuw %struct.JsonConstructorExpr, ptr %39, i32 0, i32 3
  %41 = load ptr, ptr %40, align 8
  %42 = load ptr, ptr %6, align 8
  %43 = load ptr, ptr %7, align 8
  %44 = getelementptr inbounds nuw %struct.StringInfoData, ptr %9, i32 0, i32 0
  %45 = load ptr, ptr %44, align 8
  %46 = load i8, ptr %8, align 1, !range !4, !noundef !5
  %47 = trunc i8 %46 to i1
  call void @get_windowfunc_expr_helper(ptr noundef %41, ptr noundef %42, ptr noundef %43, ptr noundef %45, i1 noundef zeroext %47)
  br label %64

48:                                               ; preds = %31
  br label %49

49:                                               ; preds = %48
  br i1 true, label %50, label %52

50:                                               ; preds = %49
  %51 = call zeroext i1 @errstart_cold(i32 noundef 21, ptr noundef null) #11
  br i1 %51, label %54, label %61

52:                                               ; preds = %49
  %53 = call zeroext i1 @errstart(i32 noundef 21, ptr noundef null)
  br i1 %53, label %54, label %61

54:                                               ; preds = %52, %50
  %55 = load ptr, ptr %5, align 8
  %56 = getelementptr inbounds nuw %struct.JsonConstructorExpr, ptr %55, i32 0, i32 3
  %57 = load ptr, ptr %56, align 8
  %58 = getelementptr inbounds nuw %struct.Node, ptr %57, i32 0, i32 0
  %59 = load i32, ptr %58, align 4
  %60 = call i32 (ptr, ...) @errmsg_internal(ptr noundef @.str.281, i32 noundef %59)
  call void @errfinish(ptr noundef @.str.2, i32 noundef 11697, ptr noundef @__func__.get_json_agg_constructor)
  br label %61

61:                                               ; preds = %54, %52, %50
  unreachable

62:                                               ; No predecessors!
  br label %63

63:                                               ; preds = %62
  br label %64

64:                                               ; preds = %63, %38
  br label %65

65:                                               ; preds = %64, %18
  call void @llvm.lifetime.end.p0(i64 24, ptr %9) #10
  ret void
}