; Function Attrs: nounwind uwtable
define internal fastcc void @get_json_agg_constructor(ptr noundef nonnull readonly captures(none) %0, ptr noundef %1, ptr noundef %2, i1 noundef zeroext %3) unnamed_addr #0 {
  %5 = alloca %struct.StringInfoData, align 8
  call void @llvm.lifetime.start.p0(i64 24, ptr nonnull %5) #11
  call void @initStringInfo(ptr noundef nonnull %5) #11
  call fastcc void @get_json_constructor_options(ptr noundef %0, ptr noundef nonnull %5)
  %6 = getelementptr inbounds nuw i8, ptr %0, i64 16
  %7 = load ptr, ptr %6, align 8
  %8 = load i32, ptr %7, align 4
  switch i32 %8, label %13 [
    i32 9, label %9
    i32 11, label %11
  ]

9:                                                ; preds = %4
  %10 = load ptr, ptr %5, align 8
  call fastcc void @get_agg_expr_helper(ptr noundef nonnull %7, ptr noundef %1, ptr noundef nonnull %7, ptr noundef %2, ptr noundef %10, i1 noundef zeroext %3)
  br label %18

11:                                               ; preds = %4
  %12 = load ptr, ptr %5, align 8
  call fastcc void @get_windowfunc_expr_helper(ptr noundef nonnull %7, ptr noundef %1, ptr noundef %2, ptr noundef %12, i1 noundef zeroext %3)
  br label %18

13:                                               ; preds = %4
  %14 = call zeroext i1 @errstart_cold(i32 noundef 21, ptr noundef null) #12
  call void @llvm.assume(i1 %14)
  %15 = load ptr, ptr %6, align 8
  %16 = load i32, ptr %15, align 4
  %17 = call i32 (ptr, ...) @errmsg_internal(ptr noundef nonnull @.str.281, i32 noundef %16) #11
  call void @errfinish(ptr noundef nonnull @.str.2, i32 noundef 11697, ptr noundef nonnull @__func__.get_json_agg_constructor) #11
  unreachable

18:                                               ; preds = %11, %9
  call void @llvm.lifetime.end.p0(i64 24, ptr nonnull %5) #11
  ret void
}